target datalayout = "e-m:e-p270:32:32-p271:32:32-p272:64:64-i64:64-i128:128-f80:128-n8:16:32:64-S128"
target triple = "x86_64-pc-linux-gnu"

%struct.SDL_Rect = type { i32, i32, i32, i32 }
%struct.SDL_VideoData = type { ptr, ptr, i32, ptr, i64, i32, ptr, i32, i64, i64, %struct.X11_ClipboardData, %struct.X11_ClipboardData, ptr, i64, %struct.X11_SettingsData, i8, %struct.anon.1, [256 x i32], i8, i8, i8, i64, i8, %struct.SDL_Point, i32, ptr, i32, i8, i32, %struct.anon.2, i8, i64, ptr, ptr, i8, i8, i8 }
%struct.X11_ClipboardData = type { ptr, ptr, ptr, i64, i32 }
%struct.X11_SettingsData = type { ptr }
%struct.anon.1 = type { i64, i64, i64, i64, i64, i64, i64, i64, i64, i64, i64, i64, i64, i64, i64, i64, i64, i64, i64, i64, i64, i64, i64, i64, i64, i64, i64, i64, i64, i64, i64, i64, i64, i64, i64, i64, i64, i64, i64, i64, i64, i64, i64, i64, i64, i64, i64, i64, i64, i64, i64, i64, i64 }
%struct.SDL_Point = type { i32, i32 }
%struct.anon.2 = type { ptr, i32, i32, i32, i16, i32, i32 }
%struct.SDL_WindowData = type { ptr, i64, ptr, i64, i8, %struct.XShmSegmentInfo, ptr, ptr, ptr, i8, i32, i32, i32, i32, i8, i8, i8, i64, i32, i64, i8, %struct.SDL_Point, %struct.XConfigureEvent, %struct.XConfigureEvent, ptr, i64, i64, i64, i8, i64, ptr, i8, [4 x i64], %struct.SDL_Rect, i64, %struct._XSyncValue, i8, %struct.SDL_Rect, %struct.SDL_DisplayMode, i32, i32, i8, i8, i8, i8, i8, i8, i8, i8, i32, %struct.XPoint, ptr, ptr, i32, i32, i8 }
%struct.XShmSegmentInfo = type { i64, i32, ptr, i32 }
%struct.XConfigureEvent = type { i32, i64, i32, ptr, i64, i64, i32, i32, i32, i32, i32, i64, i32 }
%struct._XSyncValue = type { i32, i32 }
%struct.SDL_DisplayMode = type { i32, i32, i32, i32, float, float, i32, i32, ptr }
%struct.XPoint = type { i16, i16 }
%struct.XIMCallback = type { ptr, ptr }

@SDL_X11_HAVE_UTF8 = external global i32, align 4
@.str.2 = private unnamed_addr constant [23 x i8] c"SDL_IME_IMPLEMENTED_UI\00", align 1
@.str.3 = private unnamed_addr constant [12 x i8] c"composition\00", align 1
@X11_XVaCreateNestedList = external global ptr, align 8
@.str.4 = private unnamed_addr constant [21 x i8] c"preeditStartCallback\00", align 1
@.str.5 = private unnamed_addr constant [20 x i8] c"preeditDoneCallback\00", align 1
@.str.6 = private unnamed_addr constant [20 x i8] c"preeditDrawCallback\00", align 1
@.str.7 = private unnamed_addr constant [21 x i8] c"preeditCaretCallback\00", align 1
@X11_XCreateIC = external global ptr, align 8
@.str.8 = private unnamed_addr constant [11 x i8] c"inputStyle\00", align 1
@.str.9 = private unnamed_addr constant [18 x i8] c"preeditAttributes\00", align 1
@.str.10 = private unnamed_addr constant [13 x i8] c"clientWindow\00", align 1
@X11_XFree = external global ptr, align 8

; Function Attrs: nounwind uwtable
define hidden void @X11_CreateInputContext(ptr noundef %0) #0 {
  %2 = alloca ptr, align 8
  %3 = alloca ptr, align 8
  %4 = alloca ptr, align 8
  %5 = alloca %struct.XIMCallback, align 8
  %6 = alloca %struct.XIMCallback, align 8
  %7 = alloca %struct.XIMCallback, align 8
  %8 = alloca %struct.XIMCallback, align 8
  %9 = alloca ptr, align 8
  store ptr %0, ptr %2, align 8
  call void @llvm.lifetime.start.p0(i64 8, ptr %3) #6
  %10 = load ptr, ptr %2, align 8
  %11 = getelementptr inbounds nuw %struct.SDL_WindowData, ptr %10, i32 0, i32 24
  %12 = load ptr, ptr %11, align 8
  store ptr %12, ptr %3, align 8
  %13 = load i32, ptr @SDL_X11_HAVE_UTF8, align 4
  %14 = icmp ne i32 %13, 0
  br i1 %14, label %15, label %84

15:                                               ; preds = %1
  %16 = load ptr, ptr %3, align 8
  %17 = getelementptr inbounds nuw %struct.SDL_VideoData, ptr %16, i32 0, i32 3
  %18 = load ptr, ptr %17, align 8
  %19 = icmp ne ptr %18, null
  br i1 %19, label %20, label %84

20:                                               ; preds = %15
  call void @llvm.lifetime.start.p0(i64 8, ptr %4) #6
  %21 = call ptr @SDL_GetHint_REAL(ptr noundef @.str.2)
  store ptr %21, ptr %4, align 8
  %22 = load ptr, ptr %4, align 8
  %23 = icmp ne ptr %22, null
  br i1 %23, label %24, label %61

24:                                               ; preds = %20
  %25 = load ptr, ptr %4, align 8
  %26 = call ptr @SDL_strstr_REAL(ptr noundef %25, ptr noundef @.str.3)
  %27 = icmp ne ptr %26, null
  br i1 %27, label %28, label %61

28:                                               ; preds = %24
  call void @llvm.lifetime.start.p0(i64 16, ptr %5) #6
  %29 = load ptr, ptr %2, align 8
  %30 = getelementptr inbounds nuw %struct.XIMCallback, ptr %5, i32 0, i32 0
  store ptr %29, ptr %30, align 8
  %31 = getelementptr inbounds nuw %struct.XIMCallback, ptr %5, i32 0, i32 1
  store ptr @preedit_draw_callback, ptr %31, align 8
  call void @llvm.lifetime.start.p0(i64 16, ptr %6) #6
  %32 = load ptr, ptr %2, align 8
  %33 = getelementptr inbounds nuw %struct.XIMCallback, ptr %6, i32 0, i32 0
  store ptr %32, ptr %33, align 8
  %34 = getelementptr inbounds nuw %struct.XIMCallback, ptr %6, i32 0, i32 1
  store ptr @preedit_start_callback, ptr %34, align 8
  call void @llvm.lifetime.start.p0(i64 16, ptr %7) #6
  %35 = load ptr, ptr %2, align 8
  %36 = getelementptr inbounds nuw %struct.XIMCallback, ptr %7, i32 0, i32 0
  store ptr %35, ptr %36, align 8
  %37 = getelementptr inbounds nuw %struct.XIMCallback, ptr %7, i32 0, i32 1
  store ptr @preedit_done_callback, ptr %37, align 8
  call void @llvm.lifetime.start.p0(i64 16, ptr %8) #6
  %38 = load ptr, ptr %2, align 8
  %39 = getelementptr inbounds nuw %struct.XIMCallback, ptr %8, i32 0, i32 0
  store ptr %38, ptr %39, align 8
  %40 = getelementptr inbounds nuw %struct.XIMCallback, ptr %8, i32 0, i32 1
  store ptr @preedit_caret_callback, ptr %40, align 8
  call void @llvm.lifetime.start.p0(i64 8, ptr %9) #6
  %41 = load ptr, ptr @X11_XVaCreateNestedList, align 8
  %42 = call ptr (i32, ...) %41(i32 noundef 0, ptr noundef @.str.4, ptr noundef %6, ptr noundef @.str.5, ptr noundef %7, ptr noundef @.str.6, ptr noundef %5, ptr noundef @.str.7, ptr noundef %8, ptr noundef null)
  store ptr %42, ptr %9, align 8
  %43 = load ptr, ptr %9, align 8
  %44 = icmp ne ptr %43, null
  br i1 %44, label %45, label %60

45:                                               ; preds = %28
  %46 = load ptr, ptr @X11_XCreateIC, align 8
  %47 = load ptr, ptr %3, align 8
  %48 = getelementptr inbounds nuw %struct.SDL_VideoData, ptr %47, i32 0, i32 3
  %49 = load ptr, ptr %48, align 8
  %50 = load ptr, ptr %9, align 8
  %51 = load ptr, ptr %2, align 8
  %52 = getelementptr inbounds nuw %struct.SDL_WindowData, ptr %51, i32 0, i32 1
  %53 = load i64, ptr %52, align 8
  %54 = call ptr (ptr, ...) %46(ptr noundef %49, ptr noundef @.str.8, i64 noundef 514, ptr noundef @.str.9, ptr noundef %50, ptr noundef @.str.10, i64 noundef %53, ptr noundef null)
  %55 = load ptr, ptr %2, align 8
  %56 = getelementptr inbounds nuw %struct.SDL_WindowData, ptr %55, i32 0, i32 8
  store ptr %54, ptr %56, align 8
  %57 = load ptr, ptr @X11_XFree, align 8
  %58 = load ptr, ptr %9, align 8
  %59 = call i32 %57(ptr noundef %58)
  br label %60

60:                                               ; preds = %45, %28
  call void @llvm.lifetime.end.p0(i64 8, ptr %9) #6
  call void @llvm.lifetime.end.p0(i64 16, ptr %8) #6
  call void @llvm.lifetime.end.p0(i64 16, ptr %7) #6
  call void @llvm.lifetime.end.p0(i64 16, ptr %6) #6
  call void @llvm.lifetime.end.p0(i64 16, ptr %5) #6
  br label %61

61:                                               ; preds = %60, %24, %20
  %62 = load ptr, ptr %2, align 8
  %63 = getelementptr inbounds nuw %struct.SDL_WindowData, ptr %62, i32 0, i32 8
  %64 = load ptr, ptr %63, align 8
  %65 = icmp ne ptr %64, null
  br i1 %65, label %77, label %66

66:                                               ; preds = %61
  %67 = load ptr, ptr @X11_XCreateIC, align 8
  %68 = load ptr, ptr %3, align 8
  %69 = getelementptr inbounds nuw %struct.SDL_VideoData, ptr %68, i32 0, i32 3
  %70 = load ptr, ptr %69, align 8
  %71 = load ptr, ptr %2, align 8
  %72 = getelementptr inbounds nuw %struct.SDL_WindowData, ptr %71, i32 0, i32 1
  %73 = load i64, ptr %72, align 8
  %74 = call ptr (ptr, ...) %67(ptr noundef %70, ptr noundef @.str.8, i64 noundef 1032, ptr noundef @.str.10, i64 noundef %73, ptr noundef null)
  %75 = load ptr, ptr %2, align 8
  %76 = getelementptr inbounds nuw %struct.SDL_WindowData, ptr %75, i32 0, i32 8
  store ptr %74, ptr %76, align 8
  br label %77

77:                                               ; preds = %66, %61
  %78 = load ptr, ptr %2, align 8
  %79 = getelementptr inbounds nuw %struct.SDL_WindowData, ptr %78, i32 0, i32 50
  %80 = getelementptr inbounds nuw %struct.XPoint, ptr %79, i32 0, i32 0
  store i16 -1, ptr %80, align 4
  %81 = load ptr, ptr %2, align 8
  %82 = getelementptr inbounds nuw %struct.SDL_WindowData, ptr %81, i32 0, i32 50
  %83 = getelementptr inbounds nuw %struct.XPoint, ptr %82, i32 0, i32 1
  store i16 -1, ptr %83, align 2
  call void @llvm.lifetime.end.p0(i64 8, ptr %4) #6
  br label %84

84:                                               ; preds = %77, %15, %1
  call void @llvm.lifetime.end.p0(i64 8, ptr %3) #6
  ret void
}