; Function Attrs: nounwind uwtable
define hidden void @X11_CreateInputContext(ptr noundef %0) local_unnamed_addr #0 {
  %2 = alloca %struct.XIMCallback, align 8
  %3 = alloca %struct.XIMCallback, align 8
  %4 = alloca %struct.XIMCallback, align 8
  %5 = alloca %struct.XIMCallback, align 8
  %6 = load i32, ptr @SDL_X11_HAVE_UTF8, align 4
  %.not = icmp eq i32 %6, 0
  br i1 %.not, label %45, label %7

7:                                                ; preds = %1
  %8 = getelementptr inbounds nuw i8, ptr %0, i64 336
  %9 = load ptr, ptr %8, align 8
  %10 = getelementptr inbounds nuw i8, ptr %9, i64 24
  %11 = load ptr, ptr %10, align 8
  %.not21 = icmp eq ptr %11, null
  br i1 %.not21, label %45, label %12

12:                                               ; preds = %7
  %13 = tail call ptr @SDL_GetHint_REAL(ptr noundef nonnull @.str.2) #9
  %.not22 = icmp eq ptr %13, null
  br i1 %.not22, label %33, label %14

14:                                               ; preds = %12
  %15 = tail call ptr @SDL_strstr_REAL(ptr noundef nonnull %13, ptr noundef nonnull @.str.3) #9
  %.not23 = icmp eq ptr %15, null
  br i1 %.not23, label %33, label %16

16:                                               ; preds = %14
  call void @llvm.lifetime.start.p0(i64 16, ptr nonnull %2) #9
  store ptr %0, ptr %2, align 8
  %17 = getelementptr inbounds nuw i8, ptr %2, i64 8
  store ptr @preedit_draw_callback, ptr %17, align 8
  call void @llvm.lifetime.start.p0(i64 16, ptr nonnull %3) #9
  store ptr %0, ptr %3, align 8
  %18 = getelementptr inbounds nuw i8, ptr %3, i64 8
  store ptr @preedit_start_callback, ptr %18, align 8
  call void @llvm.lifetime.start.p0(i64 16, ptr nonnull %4) #9
  store ptr %0, ptr %4, align 8
  %19 = getelementptr inbounds nuw i8, ptr %4, i64 8
  store ptr @preedit_done_callback, ptr %19, align 8
  call void @llvm.lifetime.start.p0(i64 16, ptr nonnull %5) #9
  store ptr %0, ptr %5, align 8
  %20 = getelementptr inbounds nuw i8, ptr %5, i64 8
  store ptr @preedit_caret_callback, ptr %20, align 8
  %21 = load ptr, ptr @X11_XVaCreateNestedList, align 8
  %22 = call ptr (i32, ...) %21(i32 noundef 0, ptr noundef nonnull @.str.4, ptr noundef nonnull %3, ptr noundef nonnull @.str.5, ptr noundef nonnull %4, ptr noundef nonnull @.str.6, ptr noundef nonnull %2, ptr noundef nonnull @.str.7, ptr noundef nonnull %5, ptr noundef null) #9
  %.not24 = icmp eq ptr %22, null
  br i1 %.not24, label %32, label %23

23:                                               ; preds = %16
  %24 = load ptr, ptr @X11_XCreateIC, align 8
  %25 = load ptr, ptr %10, align 8
  %26 = getelementptr inbounds nuw i8, ptr %0, i64 8
  %27 = load i64, ptr %26, align 8
  %28 = call ptr (ptr, ...) %24(ptr noundef %25, ptr noundef nonnull @.str.8, i64 noundef 514, ptr noundef nonnull @.str.9, ptr noundef nonnull %22, ptr noundef nonnull @.str.10, i64 noundef %27, ptr noundef null) #9
  %29 = getelementptr inbounds nuw i8, ptr %0, i64 88
  store ptr %28, ptr %29, align 8
  %30 = load ptr, ptr @X11_XFree, align 8
  %31 = call i32 %30(ptr noundef nonnull %22) #9
  br label %32

32:                                               ; preds = %23, %16
  call void @llvm.lifetime.end.p0(i64 16, ptr nonnull %5) #9
  call void @llvm.lifetime.end.p0(i64 16, ptr nonnull %4) #9
  call void @llvm.lifetime.end.p0(i64 16, ptr nonnull %3) #9
  call void @llvm.lifetime.end.p0(i64 16, ptr nonnull %2) #9
  br label %33

33:                                               ; preds = %32, %14, %12
  %34 = getelementptr inbounds nuw i8, ptr %0, i64 88
  %35 = load ptr, ptr %34, align 8
  %.not25 = icmp eq ptr %35, null
  br i1 %.not25, label %36, label %42

36:                                               ; preds = %33
  %37 = load ptr, ptr @X11_XCreateIC, align 8
  %38 = load ptr, ptr %10, align 8
  %39 = getelementptr inbounds nuw i8, ptr %0, i64 8
  %40 = load i64, ptr %39, align 8
  %41 = call ptr (ptr, ...) %37(ptr noundef %38, ptr noundef nonnull @.str.8, i64 noundef 1032, ptr noundef nonnull @.str.10, i64 noundef %40, ptr noundef null) #9
  store ptr %41, ptr %34, align 8
  br label %42

42:                                               ; preds = %36, %33
  %43 = getelementptr inbounds nuw i8, ptr %0, i64 548
  store i16 -1, ptr %43, align 4
  %44 = getelementptr inbounds nuw i8, ptr %0, i64 550
  store i16 -1, ptr %44, align 2
  br label %45

45:                                               ; preds = %42, %7, %1
  ret void
}